; Function Attrs: nounwind uwtable
define internal i32 @parse_test_expected_alpn_protocol(ptr noundef captures(none) %0, ptr noundef %1) #1 {
  %3 = getelementptr inbounds nuw i8, ptr %0, i64 464
  %4 = load ptr, ptr %3, align 8, !tbaa !24
  tail call void @CRYPTO_free(ptr noundef %4, ptr noundef nonnull @.str, i32 noundef 357) #8
  %5 = tail call noalias ptr @CRYPTO_strdup(ptr noundef %1, ptr noundef nonnull @.str, i32 noundef 357) #8
  store ptr %5, ptr %3, align 8, !tbaa !24
  %6 = tail call i32 @test_ptr(ptr noundef nonnull @.str, i32 noundef 357, ptr noundef nonnull @.str.134, ptr noundef %5) #8
  ret i32 %6
}